target datalayout = "e-m:e-p270:32:32-p271:32:32-p272:64:64-i64:64-i128:128-f80:128-n8:16:32:64-S128"
target triple = "x86_64-pc-linux-gnu"

; Function Attrs: mustprogress uwtable
define noundef i32 @_ZN19FilterTexturePlugin15getRequirementsEPK7QAction(ptr noundef nonnull align 8 dereferenceable(80) %0, ptr noundef %1) unnamed_addr #2 align 2 {
  %3 = alloca i32, align 4
  %4 = alloca ptr, align 8
  %5 = alloca ptr, align 8
  store ptr %0, ptr %4, align 8
  store ptr %1, ptr %5, align 8
  %6 = load ptr, ptr %4, align 8
  %7 = getelementptr inbounds i8, ptr %6, i64 16
  %8 = load ptr, ptr %5, align 8
  %9 = load ptr, ptr %7, align 8
  %10 = getelementptr inbounds ptr, ptr %9, i64 18
  %11 = load ptr, ptr %10, align 8
  %12 = call noundef i32 %11(ptr noundef nonnull align 8 dereferenceable(64) %7, ptr noundef %8)
  switch i32 %12, label %17 [
    i32 0, label %13
    i32 1, label %13
    i32 2, label %13
    i32 3, label %13
    i32 4, label %13
    i32 5, label %13
    i32 6, label %14
    i32 7, label %15
    i32 8, label %16
  ]

13:                                               ; preds = %2, %2, %2, %2, %2, %2
  store i32 0, ptr %3, align 4
  br label %19

14:                                               ; preds = %2
  store i32 262144, ptr %3, align 4
  br label %19

15:                                               ; preds = %2
  store i32 0, ptr %3, align 4
  br label %19

16:                                               ; preds = %2
  store i32 0, ptr %3, align 4
  br label %19

17:                                               ; preds = %2
  br label %18

18:                                               ; preds = %17
  store i32 0, ptr %3, align 4
  br label %19

19:                                               ; preds = %18, %16, %15, %14, %13
  %20 = load i32, ptr %3, align 4
  ret i32 %20
}